target datalayout = "e-m:e-p270:32:32-p271:32:32-p272:64:64-i64:64-i128:128-f80:128-n8:16:32:64-S128"
target triple = "x86_64-pc-linux-gnu"

%struct.luaL_Buffer = type { ptr, i32, ptr, [8192 x i8] }

; Function Attrs: nounwind uwtable
define internal i32 @emptybuffer(ptr noundef %0) #0 {
  %2 = alloca i32, align 4
  %3 = alloca ptr, align 8
  %4 = alloca i64, align 8
  %5 = alloca i32, align 4
  store ptr %0, ptr %3, align 8, !tbaa !57
  call void @llvm.lifetime.start.p0(i64 8, ptr %4) #9
  %6 = load ptr, ptr %3, align 8, !tbaa !57
  %7 = getelementptr inbounds nuw %struct.luaL_Buffer, ptr %6, i32 0, i32 0
  %8 = load ptr, ptr %7, align 8, !tbaa !61
  %9 = load ptr, ptr %3, align 8, !tbaa !57
  %10 = getelementptr inbounds nuw %struct.luaL_Buffer, ptr %9, i32 0, i32 3
  %11 = getelementptr inbounds [8192 x i8], ptr %10, i64 0, i64 0
  %12 = ptrtoint ptr %8 to i64
  %13 = ptrtoint ptr %11 to i64
  %14 = sub i64 %12, %13
  store i64 %14, ptr %4, align 8, !tbaa !55
  %15 = load i64, ptr %4, align 8, !tbaa !55
  %16 = icmp eq i64 %15, 0
  br i1 %16, label %17, label %18

17:                                               ; preds = %1
  store i32 0, ptr %2, align 4
  store i32 1, ptr %5, align 4
  br label %35

18:                                               ; preds = %1
  %19 = load ptr, ptr %3, align 8, !tbaa !57
  %20 = getelementptr inbounds nuw %struct.luaL_Buffer, ptr %19, i32 0, i32 2
  %21 = load ptr, ptr %20, align 8, !tbaa !59
  %22 = load ptr, ptr %3, align 8, !tbaa !57
  %23 = getelementptr inbounds nuw %struct.luaL_Buffer, ptr %22, i32 0, i32 3
  %24 = getelementptr inbounds [8192 x i8], ptr %23, i64 0, i64 0
  %25 = load i64, ptr %4, align 8, !tbaa !55
  call void @lua_pushlstring(ptr noundef %21, ptr noundef %24, i64 noundef %25)
  %26 = load ptr, ptr %3, align 8, !tbaa !57
  %27 = getelementptr inbounds nuw %struct.luaL_Buffer, ptr %26, i32 0, i32 3
  %28 = getelementptr inbounds [8192 x i8], ptr %27, i64 0, i64 0
  %29 = load ptr, ptr %3, align 8, !tbaa !57
  %30 = getelementptr inbounds nuw %struct.luaL_Buffer, ptr %29, i32 0, i32 0
  store ptr %28, ptr %30, align 8, !tbaa !61
  %31 = load ptr, ptr %3, align 8, !tbaa !57
  %32 = getelementptr inbounds nuw %struct.luaL_Buffer, ptr %31, i32 0, i32 1
  %33 = load i32, ptr %32, align 8, !tbaa !62
  %34 = add nsw i32 %33, 1
  store i32 %34, ptr %32, align 8, !tbaa !62
  store i32 1, ptr %2, align 4
  store i32 1, ptr %5, align 4
  br label %35

35:                                               ; preds = %18, %17
  call void @llvm.lifetime.end.p0(i64 8, ptr %4) #9
  %36 = load i32, ptr %2, align 4
  ret i32 %36
}

; Function Attrs: nounwind uwtable
define dso_local void @luaL_pushresult(ptr noundef %0) #0 {
  %2 = alloca ptr, align 8
  store ptr %0, ptr %2, align 8, !tbaa !57
  %3 = load ptr, ptr %2, align 8, !tbaa !57
  %4 = call i32 @emptybuffer(ptr noundef %3)
  %5 = load ptr, ptr %2, align 8, !tbaa !57
  %6 = getelementptr inbounds nuw %struct.luaL_Buffer, ptr %5, i32 0, i32 2
  %7 = load ptr, ptr %6, align 8, !tbaa !59
  %8 = load ptr, ptr %2, align 8, !tbaa !57
  %9 = getelementptr inbounds nuw %struct.luaL_Buffer, ptr %8, i32 0, i32 1
  %10 = load i32, ptr %9, align 8, !tbaa !62
  call void @lua_concat(ptr noundef %7, i32 noundef %10)
  %11 = load ptr, ptr %2, align 8, !tbaa !57
  %12 = getelementptr inbounds nuw %struct.luaL_Buffer, ptr %11, i32 0, i32 1
  store i32 1, ptr %12, align 8, !tbaa !62
  ret void
}

; Function Attrs: nounwind uwtable
define dso_local void @luaL_addstring(ptr noundef %0, ptr noundef %1) #0 {
  %3 = alloca ptr, align 8
  %4 = alloca ptr, align 8
  store ptr %0, ptr %3, align 8, !tbaa !57
  store ptr %1, ptr %4, align 8, !tbaa !11
  %5 = load ptr, ptr %3, align 8, !tbaa !57
  %6 = load ptr, ptr %4, align 8, !tbaa !11
  %7 = load ptr, ptr %4, align 8, !tbaa !11
  %8 = call i64 @strlen(ptr noundef %7) #11
  call void @luaL_addlstring(ptr noundef %5, ptr noundef %6, i64 noundef %8)
  ret void
}

; Function Attrs: nounwind uwtable
define dso_local void @luaL_buffinit(ptr noundef %0, ptr noundef %1) #0 {
  %3 = alloca ptr, align 8
  %4 = alloca ptr, align 8
  store ptr %0, ptr %3, align 8, !tbaa !4
  store ptr %1, ptr %4, align 8, !tbaa !57
  %5 = load ptr, ptr %3, align 8, !tbaa !4
  %6 = load ptr, ptr %4, align 8, !tbaa !57
  %7 = getelementptr inbounds nuw %struct.luaL_Buffer, ptr %6, i32 0, i32 2
  store ptr %5, ptr %7, align 8, !tbaa !59
  %8 = load ptr, ptr %4, align 8, !tbaa !57
  %9 = getelementptr inbounds nuw %struct.luaL_Buffer, ptr %8, i32 0, i32 3
  %10 = getelementptr inbounds [8192 x i8], ptr %9, i64 0, i64 0
  %11 = load ptr, ptr %4, align 8, !tbaa !57
  %12 = getelementptr inbounds nuw %struct.luaL_Buffer, ptr %11, i32 0, i32 0
  store ptr %10, ptr %12, align 8, !tbaa !61
  %13 = load ptr, ptr %4, align 8, !tbaa !57
  %14 = getelementptr inbounds nuw %struct.luaL_Buffer, ptr %13, i32 0, i32 1
  store i32 0, ptr %14, align 8, !tbaa !62
  ret void
}

; Function Attrs: nounwind uwtable
define dso_local ptr @luaL_gsub(ptr noundef %0, ptr noundef %1, ptr noundef %2, ptr noundef %3) #0 {
  %5 = alloca ptr, align 8
  %6 = alloca ptr, align 8
  %7 = alloca ptr, align 8
  %8 = alloca ptr, align 8
  %9 = alloca ptr, align 8
  %10 = alloca i64, align 8
  %11 = alloca %struct.luaL_Buffer, align 8
  store ptr %0, ptr %5, align 8, !tbaa !4
  store ptr %1, ptr %6, align 8, !tbaa !11
  store ptr %2, ptr %7, align 8, !tbaa !11
  store ptr %3, ptr %8, align 8, !tbaa !11
  call void @llvm.lifetime.start.p0(i64 8, ptr %9) #9
  call void @llvm.lifetime.start.p0(i64 8, ptr %10) #9
  %12 = load ptr, ptr %7, align 8, !tbaa !11
  %13 = call i64 @strlen(ptr noundef %12) #11
  store i64 %13, ptr %10, align 8, !tbaa !55
  call void @llvm.lifetime.start.p0(i64 8216, ptr %11) #9
  %14 = load ptr, ptr %5, align 8, !tbaa !4
  call void @luaL_buffinit(ptr noundef %14, ptr noundef %11)
  br label %15

15:                                               ; preds = %20, %4
  %16 = load ptr, ptr %6, align 8, !tbaa !11
  %17 = load ptr, ptr %7, align 8, !tbaa !11
  %18 = call ptr @strstr(ptr noundef %16, ptr noundef %17) #11
  store ptr %18, ptr %9, align 8, !tbaa !11
  %19 = icmp ne ptr %18, null
  br i1 %19, label %20, label %31

20:                                               ; preds = %15
  %21 = load ptr, ptr %6, align 8, !tbaa !11
  %22 = load ptr, ptr %9, align 8, !tbaa !11
  %23 = load ptr, ptr %6, align 8, !tbaa !11
  %24 = ptrtoint ptr %22 to i64
  %25 = ptrtoint ptr %23 to i64
  %26 = sub i64 %24, %25
  call void @luaL_addlstring(ptr noundef %11, ptr noundef %21, i64 noundef %26)
  %27 = load ptr, ptr %8, align 8, !tbaa !11
  call void @luaL_addstring(ptr noundef %11, ptr noundef %27)
  %28 = load ptr, ptr %9, align 8, !tbaa !11
  %29 = load i64, ptr %10, align 8, !tbaa !55
  %30 = getelementptr inbounds nuw i8, ptr %28, i64 %29
  store ptr %30, ptr %6, align 8, !tbaa !11
  br label %15, !llvm.loop !56

31:                                               ; preds = %15
  %32 = load ptr, ptr %6, align 8, !tbaa !11
  call void @luaL_addstring(ptr noundef %11, ptr noundef %32)
  call void @luaL_pushresult(ptr noundef %11)
  %33 = load ptr, ptr %5, align 8, !tbaa !4
  %34 = call ptr @lua_tolstring(ptr noundef %33, i32 noundef -1, ptr noundef null)
  call void @llvm.lifetime.end.p0(i64 8216, ptr %11) #9
  call void @llvm.lifetime.end.p0(i64 8, ptr %10) #9
  call void @llvm.lifetime.end.p0(i64 8, ptr %9) #9
  ret ptr %34
}