; Function Attrs: nounwind uwtable
define dso_local ptr @luaL_gsub(ptr noundef %0, ptr noundef %1, ptr noundef readonly captures(none) %2, ptr noundef %3) local_unnamed_addr #0 {
  %5 = alloca %struct.luaL_Buffer, align 8
  %6 = tail call i64 @strlen(ptr noundef nonnull dereferenceable(1) %2) #14
  call void @llvm.lifetime.start.p0(i64 8216, ptr nonnull %5) #13
  %7 = getelementptr inbounds nuw i8, ptr %5, i64 16
  store ptr %0, ptr %7, align 8, !tbaa !49
  %8 = getelementptr inbounds nuw i8, ptr %5, i64 24
  store ptr %8, ptr %5, align 8, !tbaa !51
  %9 = getelementptr inbounds nuw i8, ptr %5, i64 8
  store i32 0, ptr %9, align 8, !tbaa !52
  %10 = call ptr @strstr(ptr noundef nonnull dereferenceable(1) %1, ptr noundef nonnull dereferenceable(1) %2) #14
  %.not12 = icmp eq ptr %10, null
  br i1 %.not12, label %._crit_edge, label %.lr.ph

.lr.ph:                                           ; preds = %4, %.lr.ph
  %11 = phi ptr [ %17, %.lr.ph ], [ %10, %4 ]
  %.013 = phi ptr [ %16, %.lr.ph ], [ %1, %4 ]
  %12 = ptrtoint ptr %11 to i64
  %13 = ptrtoint ptr %.013 to i64
  %14 = sub i64 %12, %13
  call void @luaL_addlstring(ptr noundef nonnull %5, ptr noundef nonnull %.013, i64 noundef %14)
  %15 = call i64 @strlen(ptr noundef nonnull dereferenceable(1) %3) #14
  call void @luaL_addlstring(ptr noundef nonnull %5, ptr noundef nonnull %3, i64 noundef %15)
  %16 = getelementptr inbounds nuw i8, ptr %11, i64 %6
  %17 = call ptr @strstr(ptr noundef nonnull dereferenceable(1) %16, ptr noundef nonnull dereferenceable(1) %2) #14
  %.not = icmp eq ptr %17, null
  br i1 %.not, label %._crit_edge, label %.lr.ph, !llvm.loop !53

._crit_edge:                                      ; preds = %.lr.ph, %4
  %.0.lcssa = phi ptr [ %1, %4 ], [ %16, %.lr.ph ]
  %18 = call i64 @strlen(ptr noundef nonnull dereferenceable(1) %.0.lcssa) #14
  call void @luaL_addlstring(ptr noundef nonnull %5, ptr noundef nonnull %.0.lcssa, i64 noundef %18)
  %19 = load ptr, ptr %5, align 8, !tbaa !51
  %20 = icmp eq ptr %19, %8
  br i1 %20, label %.emptybuffer.exit_crit_edge.i, label %21

.emptybuffer.exit_crit_edge.i:                    ; preds = %._crit_edge
  %.pre.i = load i32, ptr %9, align 8, !tbaa !52
  br label %luaL_pushresult.exit

21:                                               ; preds = %._crit_edge
  %22 = ptrtoint ptr %8 to i64
  %23 = ptrtoint ptr %19 to i64
  %24 = sub i64 %23, %22
  %25 = load ptr, ptr %7, align 8, !tbaa !49
  call void @lua_pushlstring(ptr noundef %25, ptr noundef nonnull %8, i64 noundef %24) #13
  store ptr %8, ptr %5, align 8, !tbaa !51
  %26 = load i32, ptr %9, align 8, !tbaa !52
  %27 = add nsw i32 %26, 1
  store i32 %27, ptr %9, align 8, !tbaa !52
  br label %luaL_pushresult.exit

luaL_pushresult.exit:                             ; preds = %.emptybuffer.exit_crit_edge.i, %21
  %28 = phi i32 [ %.pre.i, %.emptybuffer.exit_crit_edge.i ], [ %27, %21 ]
  %29 = load ptr, ptr %7, align 8, !tbaa !49
  call void @lua_concat(ptr noundef %29, i32 noundef %28) #13
  store i32 1, ptr %9, align 8, !tbaa !52
  %30 = call ptr @lua_tolstring(ptr noundef %0, i32 noundef -1, ptr noundef null) #13
  call void @llvm.lifetime.end.p0(i64 8216, ptr nonnull %5) #13
  ret ptr %30
}